target datalayout = "e-m:e-p270:32:32-p271:32:32-p272:64:64-i64:64-i128:128-f80:128-n8:16:32:64-S128"
target triple = "x86_64-pc-linux-gnu"

%"class.sat::literal" = type { i32 }
%"class.pb::constraint" = type { ptr, i32, i8, %"class.sat::literal", %"class.sat::literal", i32, i32, i32, i64, i8, i32, i8, i32 }
%"class.sat::watched" = type <{ i64, i32, [4 x i8] }>
%class.vector = type { ptr }

; Function Attrs: mustprogress nounwind uwtable
define linkonce_odr hidden noundef i64 @_ZN3sat15constraint_base8ext_sizeEv() #7 comdat align 2 {
  ret i64 8
}

; Function Attrs: mustprogress uwtable
define linkonce_odr hidden noundef ptr @_ZN3sat15constraint_base12mem2base_ptrEPKv(ptr noundef %0) #4 comdat align 2 {
  %2 = alloca ptr, align 8
  store ptr %0, ptr %2, align 8, !tbaa !53
  %3 = load ptr, ptr %2, align 8, !tbaa !53
  %4 = call noundef i64 @_ZN3sat15constraint_base8ext_sizeEv()
  %5 = sub i64 0, %4
  %6 = getelementptr inbounds i8, ptr %3, i64 %5
  ret ptr %6
}

; Function Attrs: mustprogress uwtable
define linkonce_odr hidden noundef i64 @_ZN3sat15constraint_base8mem2baseEPKv(ptr noundef %0) #4 comdat align 2 {
  %2 = alloca ptr, align 8
  store ptr %0, ptr %2, align 8, !tbaa !53
  %3 = load ptr, ptr %2, align 8, !tbaa !53
  %4 = call noundef ptr @_ZN3sat15constraint_base12mem2base_ptrEPKv(ptr noundef %3)
  %5 = ptrtoint ptr %4 to i64
  ret i64 %5
}

; Function Attrs: mustprogress uwtable
define linkonce_odr hidden noundef nonnull align 8 dereferenceable(8) ptr @_ZN6vectorIN3sat7watchedELb1EjE9push_backERKS1_(ptr noundef nonnull align 8 dereferenceable(8) %0, ptr noundef nonnull align 8 dereferenceable(12) %1) #4 comdat align 2 {
  %3 = alloca ptr, align 8
  %4 = alloca ptr, align 8
  store ptr %0, ptr %3, align 8, !tbaa !32
  store ptr %1, ptr %4, align 8, !tbaa !34
  %5 = load ptr, ptr %3, align 8
  %6 = getelementptr inbounds nuw %class.vector, ptr %5, i32 0, i32 0
  %7 = load ptr, ptr %6, align 8, !tbaa !44
  %8 = icmp eq ptr %7, null
  br i1 %8, label %19, label %9

9:                                                ; preds = %2
  %10 = getelementptr inbounds nuw %class.vector, ptr %5, i32 0, i32 0
  %11 = load ptr, ptr %10, align 8, !tbaa !44
  %12 = getelementptr inbounds i32, ptr %11, i64 -1
  %13 = load i32, ptr %12, align 4, !tbaa !8
  %14 = getelementptr inbounds nuw %class.vector, ptr %5, i32 0, i32 0
  %15 = load ptr, ptr %14, align 8, !tbaa !44
  %16 = getelementptr inbounds i32, ptr %15, i64 -2
  %17 = load i32, ptr %16, align 4, !tbaa !8
  %18 = icmp eq i32 %13, %17
  br i1 %18, label %19, label %20

19:                                               ; preds = %9, %2
  call void @_ZN6vectorIN3sat7watchedELb1EjE13expand_vectorEv(ptr noundef nonnull align 8 dereferenceable(8) %5)
  br label %20

20:                                               ; preds = %19, %9
  %21 = getelementptr inbounds nuw %class.vector, ptr %5, i32 0, i32 0
  %22 = load ptr, ptr %21, align 8, !tbaa !44
  %23 = getelementptr inbounds nuw %class.vector, ptr %5, i32 0, i32 0
  %24 = load ptr, ptr %23, align 8, !tbaa !44
  %25 = getelementptr inbounds i32, ptr %24, i64 -1
  %26 = load i32, ptr %25, align 4, !tbaa !8
  %27 = zext i32 %26 to i64
  %28 = getelementptr inbounds nuw %"class.sat::watched", ptr %22, i64 %27
  %29 = load ptr, ptr %4, align 8, !tbaa !34
  call void @llvm.memcpy.p0.p0.i64(ptr align 8 %28, ptr align 8 %29, i64 16, i1 false), !tbaa.struct !46
  %30 = getelementptr inbounds nuw %class.vector, ptr %5, i32 0, i32 0
  %31 = load ptr, ptr %30, align 8, !tbaa !44
  %32 = getelementptr inbounds i32, ptr %31, i64 -1
  %33 = load i32, ptr %32, align 4, !tbaa !8
  %34 = add i32 %33, 1
  store i32 %34, ptr %32, align 4, !tbaa !8
  ret ptr %5
}

; Function Attrs: mustprogress nounwind uwtable
define linkonce_odr hidden void @_ZN3sat7watchedC2Em(ptr noundef nonnull align 8 dereferenceable(12) %0, i64 noundef %1) unnamed_addr #7 comdat align 2 {
  %3 = alloca ptr, align 8
  %4 = alloca i64, align 8
  store ptr %0, ptr %3, align 8, !tbaa !34
  store i64 %1, ptr %4, align 8, !tbaa !37
  %5 = load ptr, ptr %3, align 8
  %6 = getelementptr inbounds nuw %"class.sat::watched", ptr %5, i32 0, i32 0
  %7 = load i64, ptr %4, align 8, !tbaa !37
  store i64 %7, ptr %6, align 8, !tbaa !38
  %8 = getelementptr inbounds nuw %"class.sat::watched", ptr %5, i32 0, i32 1
  store i32 2, ptr %8, align 8, !tbaa !40
  ret void
}

; Function Attrs: mustprogress uwtable
define linkonce_odr hidden noundef i64 @_ZNK2pb10constraint6cindexEv(ptr noundef nonnull align 8 dereferenceable(64) %0) #4 comdat align 2 {
  %2 = alloca ptr, align 8
  store ptr %0, ptr %2, align 8, !tbaa !3
  %3 = load ptr, ptr %2, align 8
  %4 = call noundef i64 @_ZN3sat15constraint_base8mem2baseEPKv(ptr noundef %3)
  ret i64 %4
}

; Function Attrs: inlinehint mustprogress nounwind uwtable
define linkonce_odr hidden noundef zeroext i1 @_ZN3sateqERKNS_7literalES2_(ptr noundef nonnull align 4 dereferenceable(4) %0, ptr noundef nonnull align 4 dereferenceable(4) %1) #5 comdat {
  %3 = alloca ptr, align 8
  %4 = alloca ptr, align 8
  store ptr %0, ptr %3, align 8, !tbaa !14
  store ptr %1, ptr %4, align 8, !tbaa !14
  %5 = load ptr, ptr %3, align 8, !tbaa !14
  %6 = getelementptr inbounds nuw %"class.sat::literal", ptr %5, i32 0, i32 0
  %7 = load i32, ptr %6, align 4, !tbaa !16
  %8 = load ptr, ptr %4, align 8, !tbaa !14
  %9 = getelementptr inbounds nuw %"class.sat::literal", ptr %8, i32 0, i32 0
  %10 = load i32, ptr %9, align 4, !tbaa !16
  %11 = icmp eq i32 %7, %10
  ret i1 %11
}

; Function Attrs: mustprogress nounwind uwtable
define linkonce_odr hidden i32 @_ZN3satcoENS_7literalE(i32 %0) #7 comdat {
  %2 = alloca %"class.sat::literal", align 4
  %3 = alloca %"class.sat::literal", align 4
  %4 = getelementptr inbounds nuw %"class.sat::literal", ptr %3, i32 0, i32 0
  store i32 %0, ptr %4, align 4
  %5 = getelementptr inbounds nuw %"class.sat::literal", ptr %3, i32 0, i32 0
  %6 = load i32, ptr %5, align 4, !tbaa !16
  %7 = xor i32 %6, 1
  %8 = getelementptr inbounds nuw %"class.sat::literal", ptr %3, i32 0, i32 0
  store i32 %7, ptr %8, align 4, !tbaa !16
  call void @llvm.memcpy.p0.p0.i64(ptr align 4 %2, ptr align 4 %3, i64 4, i1 false), !tbaa.struct !18
  %9 = getelementptr inbounds nuw %"class.sat::literal", ptr %2, i32 0, i32 0
  %10 = load i32, ptr %9, align 4
  ret i32 %10
}

; Function Attrs: mustprogress nounwind uwtable
define linkonce_odr hidden i32 @_ZNK2pb10constraint3litEv(ptr noundef nonnull align 8 dereferenceable(64) %0) #7 comdat align 2 {
  %2 = alloca %"class.sat::literal", align 4
  %3 = alloca ptr, align 8
  store ptr %0, ptr %3, align 8, !tbaa !3
  %4 = load ptr, ptr %3, align 8
  %5 = getelementptr inbounds nuw %"class.pb::constraint", ptr %4, i32 0, i32 3
  call void @llvm.memcpy.p0.p0.i64(ptr align 4 %2, ptr align 8 %5, i64 4, i1 false), !tbaa.struct !18
  %6 = getelementptr inbounds nuw %"class.sat::literal", ptr %2, i32 0, i32 0
  %7 = load i32, ptr %6, align 4
  ret i32 %7
}

; Function Attrs: mustprogress nounwind uwtable
define linkonce_odr hidden noundef zeroext i1 @_ZNK2pb10constraint7is_pureEv(ptr noundef nonnull align 8 dereferenceable(64) %0) #7 comdat align 2 {
  %2 = alloca ptr, align 8
  store ptr %0, ptr %2, align 8, !tbaa !3
  %3 = load ptr, ptr %2, align 8
  %4 = getelementptr inbounds nuw %"class.pb::constraint", ptr %3, i32 0, i32 11
  %5 = load i8, ptr %4, align 8, !tbaa !41, !range !42, !noundef !43
  %6 = trunc i8 %5 to i1
  ret i1 %6
}

; Function Attrs: mustprogress uwtable
define hidden void @_ZN2pb10constraint13watch_literalERNS_16solver_interfaceEN3sat7literalE(ptr noundef nonnull align 8 dereferenceable(64) %0, ptr noundef nonnull align 8 dereferenceable(8) %1, i32 %2) #4 align 2 {
  %4 = alloca %"class.sat::literal", align 4
  %5 = alloca ptr, align 8
  %6 = alloca ptr, align 8
  %7 = alloca %"class.sat::literal", align 4
  %8 = alloca %"class.sat::literal", align 4
  %9 = alloca %"class.sat::watched", align 8
  %10 = alloca %"class.sat::literal", align 4
  %11 = alloca %"class.sat::literal", align 4
  %12 = getelementptr inbounds nuw %"class.sat::literal", ptr %4, i32 0, i32 0
  store i32 %2, ptr %12, align 4
  store ptr %0, ptr %5, align 8, !tbaa !3
  store ptr %1, ptr %6, align 8, !tbaa !30
  %13 = load ptr, ptr %5, align 8
  %14 = call noundef zeroext i1 @_ZNK2pb10constraint7is_pureEv(ptr noundef nonnull align 8 dereferenceable(64) %13)
  call void @llvm.lifetime.start.p0(i64 4, ptr %7) #3
  br i1 %14, label %15, label %23

15:                                               ; preds = %3
  %16 = call i32 @_ZNK2pb10constraint3litEv(ptr noundef nonnull align 8 dereferenceable(64) %13)
  %17 = getelementptr inbounds nuw %"class.sat::literal", ptr %8, i32 0, i32 0
  store i32 %16, ptr %17, align 4
  %18 = getelementptr inbounds nuw %"class.sat::literal", ptr %8, i32 0, i32 0
  %19 = load i32, ptr %18, align 4
  %20 = call i32 @_ZN3satcoENS_7literalE(i32 %19)
  %21 = getelementptr inbounds nuw %"class.sat::literal", ptr %7, i32 0, i32 0
  store i32 %20, ptr %21, align 4
  %22 = call noundef zeroext i1 @_ZN3sateqERKNS_7literalES2_(ptr noundef nonnull align 4 dereferenceable(4) %4, ptr noundef nonnull align 4 dereferenceable(4) %7)
  br label %23

23:                                               ; preds = %15, %3
  %24 = phi i1 [ false, %3 ], [ %22, %15 ]
  call void @llvm.lifetime.end.p0(i64 4, ptr %7) #3
  br i1 %24, label %25, label %26

25:                                               ; preds = %23
  br label %40

26:                                               ; preds = %23
  call void @llvm.lifetime.start.p0(i64 16, ptr %9) #3
  %27 = call noundef i64 @_ZNK2pb10constraint6cindexEv(ptr noundef nonnull align 8 dereferenceable(64) %13)
  call void @_ZN3sat7watchedC2Em(ptr noundef nonnull align 8 dereferenceable(12) %9, i64 noundef %27)
  %28 = load ptr, ptr %6, align 8, !tbaa !30
  call void @llvm.memcpy.p0.p0.i64(ptr align 4 %11, ptr align 4 %4, i64 4, i1 false), !tbaa.struct !18
  %29 = getelementptr inbounds nuw %"class.sat::literal", ptr %11, i32 0, i32 0
  %30 = load i32, ptr %29, align 4
  %31 = call i32 @_ZN3satcoENS_7literalE(i32 %30)
  %32 = getelementptr inbounds nuw %"class.sat::literal", ptr %10, i32 0, i32 0
  store i32 %31, ptr %32, align 4
  %33 = getelementptr inbounds nuw %"class.sat::literal", ptr %10, i32 0, i32 0
  %34 = load i32, ptr %33, align 4
  %35 = load ptr, ptr %28, align 8, !tbaa !10
  %36 = getelementptr inbounds ptr, ptr %35, i64 8
  %37 = load ptr, ptr %36, align 8
  %38 = call noundef nonnull align 8 dereferenceable(8) ptr %37(ptr noundef nonnull align 8 dereferenceable(8) %28, i32 %34)
  %39 = call noundef nonnull align 8 dereferenceable(8) ptr @_ZN6vectorIN3sat7watchedELb1EjE9push_backERKS1_(ptr noundef nonnull align 8 dereferenceable(8) %38, ptr noundef nonnull align 8 dereferenceable(12) %9)
  call void @llvm.lifetime.end.p0(i64 16, ptr %9) #3
  br label %40

40:                                               ; preds = %26, %25
  ret void
}