; Function Attrs: mustprogress uwtable
define hidden void @_ZN2pb10constraint13watch_literalERNS_16solver_interfaceEN3sat7literalE(ptr noundef nonnull align 8 dereferenceable(64) %0, ptr noundef nonnull align 8 dereferenceable(8) %1, i32 %2) local_unnamed_addr #3 align 2 {
  %4 = getelementptr inbounds nuw i8, ptr %0, i64 56
  %5 = load i8, ptr %4, align 8, !tbaa !28, !range !29, !noundef !30
  %6 = trunc nuw i8 %5 to i1
  br i1 %6, label %7, label %.critedge

7:                                                ; preds = %3
  %8 = getelementptr inbounds nuw i8, ptr %0, i64 16
  %.sroa.0.0.copyload.i = load i32, ptr %8, align 8, !tbaa !3
  %9 = xor i32 %.sroa.0.0.copyload.i, %2
  %10 = icmp eq i32 %9, 1
  br i1 %10, label %33, label %.critedge

.critedge:                                        ; preds = %3, %7
  %11 = getelementptr inbounds i8, ptr %0, i64 -8
  %12 = ptrtoint ptr %11 to i64
  %13 = xor i32 %2, 1
  %14 = load ptr, ptr %1, align 8, !tbaa !13
  %15 = getelementptr inbounds nuw i8, ptr %14, i64 64
  %16 = load ptr, ptr %15, align 8
  %17 = tail call noundef nonnull align 8 dereferenceable(8) ptr %16(ptr noundef nonnull align 8 dereferenceable(8) %1, i32 %13)
  %18 = load ptr, ptr %17, align 8, !tbaa !17
  %19 = icmp eq ptr %18, null
  br i1 %19, label %26, label %20

20:                                               ; preds = %.critedge
  %21 = getelementptr inbounds i8, ptr %18, i64 -4
  %22 = load i32, ptr %21, align 4, !tbaa !3
  %23 = getelementptr inbounds i8, ptr %18, i64 -8
  %24 = load i32, ptr %23, align 4, !tbaa !3
  %25 = icmp eq i32 %22, %24
  br i1 %25, label %26, label %_ZN6vectorIN3sat7watchedELb1EjE9push_backERKS1_.exit

26:                                               ; preds = %20, %.critedge
  tail call void @_ZN6vectorIN3sat7watchedELb1EjE13expand_vectorEv(ptr noundef nonnull align 8 dereferenceable(8) %17)
  %.pre.i = load ptr, ptr %17, align 8, !tbaa !17
  %.phi.trans.insert.i = getelementptr inbounds i8, ptr %.pre.i, i64 -4
  %.pre2.i = load i32, ptr %.phi.trans.insert.i, align 4, !tbaa !3
  br label %_ZN6vectorIN3sat7watchedELb1EjE9push_backERKS1_.exit

_ZN6vectorIN3sat7watchedELb1EjE9push_backERKS1_.exit: ; preds = %20, %26
  %27 = phi i32 [ %.pre2.i, %26 ], [ %22, %20 ]
  %28 = phi ptr [ %.pre.i, %26 ], [ %18, %20 ]
  %29 = zext i32 %27 to i64
  %30 = getelementptr inbounds nuw %"class.sat::watched", ptr %28, i64 %29
  store i64 %12, ptr %30, align 8, !tbaa !26
  %.sroa.4.0..sroa_idx = getelementptr inbounds nuw i8, ptr %30, i64 8
  store i32 2, ptr %.sroa.4.0..sroa_idx, align 8, !tbaa !3
  %31 = getelementptr inbounds i8, ptr %28, i64 -4
  %32 = add i32 %27, 1
  store i32 %32, ptr %31, align 4, !tbaa !3
  br label %33

33:                                               ; preds = %7, %_ZN6vectorIN3sat7watchedELb1EjE9push_backERKS1_.exit
  ret void
}